target datalayout = "e-m:e-p270:32:32-p271:32:32-p272:64:64-i64:64-i128:128-f80:128-n8:16:32:64-S128"
target triple = "x86_64-pc-linux-gnu"

; Function Attrs: nounwind uwtable
define hidden void @timelib_hms_to_decimal_hour(i32 noundef %0, i32 noundef %1, i32 noundef %2, ptr noundef %3) #0 {
  %5 = alloca i32, align 4
  %6 = alloca i32, align 4
  %7 = alloca i32, align 4
  %8 = alloca ptr, align 8
  store i32 %0, ptr %5, align 4
  store i32 %1, ptr %6, align 4
  store i32 %2, ptr %7, align 4
  store ptr %3, ptr %8, align 8
  %9 = load i32, ptr %5, align 4
  %10 = icmp sge i32 %9, 0
  br i1 %10, label %11, label %23

11:                                               ; preds = %4
  %12 = load i32, ptr %5, align 4
  %13 = sitofp i32 %12 to double
  %14 = load i32, ptr %6, align 4
  %15 = sitofp i32 %14 to double
  %16 = fdiv double %15, 6.000000e+01
  %17 = fadd double %13, %16
  %18 = load i32, ptr %7, align 4
  %19 = sitofp i32 %18 to double
  %20 = fdiv double %19, 3.600000e+03
  %21 = fadd double %17, %20
  %22 = load ptr, ptr %8, align 8
  store double %21, ptr %22, align 8
  br label %35

23:                                               ; preds = %4
  %24 = load i32, ptr %5, align 4
  %25 = sitofp i32 %24 to double
  %26 = load i32, ptr %6, align 4
  %27 = sitofp i32 %26 to double
  %28 = fdiv double %27, 6.000000e+01
  %29 = fsub double %25, %28
  %30 = load i32, ptr %7, align 4
  %31 = sitofp i32 %30 to double
  %32 = fdiv double %31, 3.600000e+03
  %33 = fsub double %29, %32
  %34 = load ptr, ptr %8, align 8
  store double %33, ptr %34, align 8
  br label %35

35:                                               ; preds = %23, %11
  ret void
}