; Function Attrs: mustprogress nofree norecurse nosync nounwind willreturn memory(argmem: write) uwtable
define hidden void @timelib_hms_to_decimal_hour(i32 noundef %0, i32 noundef %1, i32 noundef %2, ptr nocapture noundef writeonly %3) local_unnamed_addr #10 {
  %5 = sitofp i32 %0 to double
  %6 = insertelement <2 x i32> poison, i32 %1, i64 0
  %7 = insertelement <2 x i32> %6, i32 %2, i64 1
  %8 = sitofp <2 x i32> %7 to <2 x double>
  %9 = fdiv <2 x double> %8, <double 6.000000e+01, double 3.600000e+03>
  %10 = extractelement <2 x double> %9, i64 0
  %11 = fsub double %5, %10
  %12 = extractelement <2 x double> %9, i64 1
  %13 = fsub double %11, %12
  %14 = fadd double %10, %5
  %15 = fadd double %14, %12
  %16 = icmp slt i32 %0, 0
  %storemerge = select i1 %16, double %13, double %15
  store double %storemerge, ptr %3, align 8
  ret void
}